target datalayout = "e-m:e-p270:32:32-p271:32:32-p272:64:64-i64:64-i128:128-f80:128-n8:16:32:64-S128"
target triple = "x86_64-pc-linux-gnu"

%struct.FunctionCallInfoBaseData = type { ptr, ptr, ptr, i32, i8, i16, [0 x %struct.NullableDatum] }
%struct.NullableDatum = type { i64, i8 }
%struct.Node = type { i32 }
%struct.TriggerData = type { i32, i32, ptr, ptr, ptr, ptr, ptr, ptr, ptr, ptr, ptr }

@.str.14 = private unnamed_addr constant [14 x i8] c"ri_triggers.c\00", align 1
@.str.66 = private unnamed_addr constant [48 x i8] c"function \22%s\22 was not called by trigger manager\00", align 1
@__func__.ri_CheckTrigger = private unnamed_addr constant [16 x i8] c"ri_CheckTrigger\00", align 1
@.str.67 = private unnamed_addr constant [38 x i8] c"function \22%s\22 must be fired AFTER ROW\00", align 1
@.str.68 = private unnamed_addr constant [39 x i8] c"function \22%s\22 must be fired for INSERT\00", align 1
@.str.69 = private unnamed_addr constant [39 x i8] c"function \22%s\22 must be fired for UPDATE\00", align 1
@.str.70 = private unnamed_addr constant [39 x i8] c"function \22%s\22 must be fired for DELETE\00", align 1

; Function Attrs: nounwind uwtable
define internal void @ri_CheckTrigger(ptr noundef %0, ptr noundef %1, i32 noundef %2) #0 {
  %4 = alloca ptr, align 8
  %5 = alloca ptr, align 8
  %6 = alloca i32, align 4
  %7 = alloca ptr, align 8
  store ptr %0, ptr %4, align 8
  store ptr %1, ptr %5, align 8
  store i32 %2, ptr %6, align 4
  call void @llvm.lifetime.start.p0(i64 8, ptr %7) #9
  %8 = load ptr, ptr %4, align 8
  %9 = getelementptr inbounds nuw %struct.FunctionCallInfoBaseData, ptr %8, i32 0, i32 1
  %10 = load ptr, ptr %9, align 8
  store ptr %10, ptr %7, align 8
  %11 = load ptr, ptr %4, align 8
  %12 = getelementptr inbounds nuw %struct.FunctionCallInfoBaseData, ptr %11, i32 0, i32 1
  %13 = load ptr, ptr %12, align 8
  %14 = icmp ne ptr %13, null
  br i1 %14, label %15, label %22

15:                                               ; preds = %3
  %16 = load ptr, ptr %4, align 8
  %17 = getelementptr inbounds nuw %struct.FunctionCallInfoBaseData, ptr %16, i32 0, i32 1
  %18 = load ptr, ptr %17, align 8
  %19 = getelementptr inbounds nuw %struct.Node, ptr %18, i32 0, i32 0
  %20 = load i32, ptr %19, align 4
  %21 = icmp eq i32 %20, 441
  br i1 %21, label %35, label %22

22:                                               ; preds = %15, %3
  br label %23

23:                                               ; preds = %22
  br i1 true, label %24, label %26

24:                                               ; preds = %23
  %25 = call zeroext i1 @errstart_cold(i32 noundef 21, ptr noundef null) #10
  br i1 %25, label %28, label %32

26:                                               ; preds = %23
  %27 = call zeroext i1 @errstart(i32 noundef 21, ptr noundef null)
  br i1 %27, label %28, label %32

28:                                               ; preds = %26, %24
  %29 = call i32 @errcode(i32 noundef 16908867)
  %30 = load ptr, ptr %5, align 8
  %31 = call i32 (ptr, ...) @errmsg(ptr noundef @.str.66, ptr noundef %30)
  call void @errfinish(ptr noundef @.str.14, i32 noundef 2175, ptr noundef @__func__.ri_CheckTrigger)
  br label %32

32:                                               ; preds = %28, %26, %24
  unreachable

33:                                               ; No predecessors!
  br label %34

34:                                               ; preds = %33
  br label %35

35:                                               ; preds = %34, %15
  %36 = load ptr, ptr %7, align 8
  %37 = getelementptr inbounds nuw %struct.TriggerData, ptr %36, i32 0, i32 1
  %38 = load i32, ptr %37, align 4
  %39 = and i32 %38, 24
  %40 = icmp eq i32 %39, 0
  br i1 %40, label %41, label %47

41:                                               ; preds = %35
  %42 = load ptr, ptr %7, align 8
  %43 = getelementptr inbounds nuw %struct.TriggerData, ptr %42, i32 0, i32 1
  %44 = load i32, ptr %43, align 4
  %45 = and i32 %44, 4
  %46 = icmp ne i32 %45, 0
  br i1 %46, label %60, label %47

47:                                               ; preds = %41, %35
  br label %48

48:                                               ; preds = %47
  br i1 true, label %49, label %51

49:                                               ; preds = %48
  %50 = call zeroext i1 @errstart_cold(i32 noundef 21, ptr noundef null) #10
  br i1 %50, label %53, label %57

51:                                               ; preds = %48
  %52 = call zeroext i1 @errstart(i32 noundef 21, ptr noundef null)
  br i1 %52, label %53, label %57

53:                                               ; preds = %51, %49
  %54 = call i32 @errcode(i32 noundef 16908867)
  %55 = load ptr, ptr %5, align 8
  %56 = call i32 (ptr, ...) @errmsg(ptr noundef @.str.67, ptr noundef %55)
  call void @errfinish(ptr noundef @.str.14, i32 noundef 2184, ptr noundef @__func__.ri_CheckTrigger)
  br label %57

57:                                               ; preds = %53, %51, %49
  unreachable

58:                                               ; No predecessors!
  br label %59

59:                                               ; preds = %58
  br label %60

60:                                               ; preds = %59, %41
  %61 = load i32, ptr %6, align 4
  switch i32 %61, label %122 [
    i32 1, label %62
    i32 2, label %82
    i32 3, label %102
  ]

62:                                               ; preds = %60
  %63 = load ptr, ptr %7, align 8
  %64 = getelementptr inbounds nuw %struct.TriggerData, ptr %63, i32 0, i32 1
  %65 = load i32, ptr %64, align 4
  %66 = and i32 %65, 3
  %67 = icmp eq i32 %66, 0
  br i1 %67, label %81, label %68

68:                                               ; preds = %62
  br label %69

69:                                               ; preds = %68
  br i1 true, label %70, label %72

70:                                               ; preds = %69
  %71 = call zeroext i1 @errstart_cold(i32 noundef 21, ptr noundef null) #10
  br i1 %71, label %74, label %78

72:                                               ; preds = %69
  %73 = call zeroext i1 @errstart(i32 noundef 21, ptr noundef null)
  br i1 %73, label %74, label %78

74:                                               ; preds = %72, %70
  %75 = call i32 @errcode(i32 noundef 16908867)
  %76 = load ptr, ptr %5, align 8
  %77 = call i32 (ptr, ...) @errmsg(ptr noundef @.str.68, ptr noundef %76)
  call void @errfinish(ptr noundef @.str.14, i32 noundef 2192, ptr noundef @__func__.ri_CheckTrigger)
  br label %78

78:                                               ; preds = %74, %72, %70
  unreachable

79:                                               ; No predecessors!
  br label %80

80:                                               ; preds = %79
  br label %81

81:                                               ; preds = %80, %62
  br label %122

82:                                               ; preds = %60
  %83 = load ptr, ptr %7, align 8
  %84 = getelementptr inbounds nuw %struct.TriggerData, ptr %83, i32 0, i32 1
  %85 = load i32, ptr %84, align 4
  %86 = and i32 %85, 3
  %87 = icmp eq i32 %86, 2
  br i1 %87, label %101, label %88

88:                                               ; preds = %82
  br label %89

89:                                               ; preds = %88
  br i1 true, label %90, label %92

90:                                               ; preds = %89
  %91 = call zeroext i1 @errstart_cold(i32 noundef 21, ptr noundef null) #10
  br i1 %91, label %94, label %98

92:                                               ; preds = %89
  %93 = call zeroext i1 @errstart(i32 noundef 21, ptr noundef null)
  br i1 %93, label %94, label %98

94:                                               ; preds = %92, %90
  %95 = call i32 @errcode(i32 noundef 16908867)
  %96 = load ptr, ptr %5, align 8
  %97 = call i32 (ptr, ...) @errmsg(ptr noundef @.str.69, ptr noundef %96)
  call void @errfinish(ptr noundef @.str.14, i32 noundef 2198, ptr noundef @__func__.ri_CheckTrigger)
  br label %98

98:                                               ; preds = %94, %92, %90
  unreachable

99:                                               ; No predecessors!
  br label %100

100:                                              ; preds = %99
  br label %101

101:                                              ; preds = %100, %82
  br label %122

102:                                              ; preds = %60
  %103 = load ptr, ptr %7, align 8
  %104 = getelementptr inbounds nuw %struct.TriggerData, ptr %103, i32 0, i32 1
  %105 = load i32, ptr %104, align 4
  %106 = and i32 %105, 3
  %107 = icmp eq i32 %106, 1
  br i1 %107, label %121, label %108

108:                                              ; preds = %102
  br label %109

109:                                              ; preds = %108
  br i1 true, label %110, label %112

110:                                              ; preds = %109
  %111 = call zeroext i1 @errstart_cold(i32 noundef 21, ptr noundef null) #10
  br i1 %111, label %114, label %118

112:                                              ; preds = %109
  %113 = call zeroext i1 @errstart(i32 noundef 21, ptr noundef null)
  br i1 %113, label %114, label %118

114:                                              ; preds = %112, %110
  %115 = call i32 @errcode(i32 noundef 16908867)
  %116 = load ptr, ptr %5, align 8
  %117 = call i32 (ptr, ...) @errmsg(ptr noundef @.str.70, ptr noundef %116)
  call void @errfinish(ptr noundef @.str.14, i32 noundef 2204, ptr noundef @__func__.ri_CheckTrigger)
  br label %118

118:                                              ; preds = %114, %112, %110
  unreachable

119:                                              ; No predecessors!
  br label %120

120:                                              ; preds = %119
  br label %121

121:                                              ; preds = %120, %102
  br label %122

122:                                              ; preds = %60, %121, %101, %81
  call void @llvm.lifetime.end.p0(i64 8, ptr %7) #9
  ret void
}