; Function Attrs: nounwind uwtable
define internal fastcc void @ri_CheckTrigger(ptr readonly captures(address_is_null) %.8.val, ptr noundef %0, i32 noundef range(i32 1, 4) %1) unnamed_addr #0 {
  %.not = icmp eq ptr %.8.val, null
  br i1 %.not, label %6, label %3

3:                                                ; preds = %2
  %4 = load i32, ptr %.8.val, align 4
  %5 = icmp eq i32 %4, 441
  br i1 %5, label %10, label %6

6:                                                ; preds = %3, %2
  %7 = tail call zeroext i1 @errstart_cold(i32 noundef 21, ptr noundef null) #10
  tail call void @llvm.assume(i1 %7)
  %8 = tail call i32 @errcode(i32 noundef 16908867) #11
  %9 = tail call i32 (ptr, ...) @errmsg(ptr noundef nonnull @.str.66, ptr noundef %0) #11
  tail call void @errfinish(ptr noundef nonnull @.str.14, i32 noundef 2175, ptr noundef nonnull @__func__.ri_CheckTrigger) #11
  unreachable

10:                                               ; preds = %3
  %11 = getelementptr inbounds nuw i8, ptr %.8.val, i64 4
  %12 = load i32, ptr %11, align 4
  %13 = and i32 %12, 28
  %or.cond.not = icmp eq i32 %13, 4
  br i1 %or.cond.not, label %18, label %14

14:                                               ; preds = %10
  %15 = tail call zeroext i1 @errstart_cold(i32 noundef 21, ptr noundef null) #10
  tail call void @llvm.assume(i1 %15)
  %16 = tail call i32 @errcode(i32 noundef 16908867) #11
  %17 = tail call i32 (ptr, ...) @errmsg(ptr noundef nonnull @.str.67, ptr noundef %0) #11
  tail call void @errfinish(ptr noundef nonnull @.str.14, i32 noundef 2184, ptr noundef nonnull @__func__.ri_CheckTrigger) #11
  unreachable

18:                                               ; preds = %10
  %19 = and i32 %12, 3
  switch i32 %1, label %default.unreachable1 [
    i32 1, label %20
    i32 2, label %26
    i32 3, label %32
  ]

20:                                               ; preds = %18
  %21 = icmp eq i32 %19, 0
  br i1 %21, label %38, label %22

22:                                               ; preds = %20
  %23 = tail call zeroext i1 @errstart_cold(i32 noundef 21, ptr noundef null) #10
  tail call void @llvm.assume(i1 %23)
  %24 = tail call i32 @errcode(i32 noundef 16908867) #11
  %25 = tail call i32 (ptr, ...) @errmsg(ptr noundef nonnull @.str.68, ptr noundef %0) #11
  tail call void @errfinish(ptr noundef nonnull @.str.14, i32 noundef 2192, ptr noundef nonnull @__func__.ri_CheckTrigger) #11
  unreachable

26:                                               ; preds = %18
  %27 = icmp eq i32 %19, 2
  br i1 %27, label %38, label %28

28:                                               ; preds = %26
  %29 = tail call zeroext i1 @errstart_cold(i32 noundef 21, ptr noundef null) #10
  tail call void @llvm.assume(i1 %29)
  %30 = tail call i32 @errcode(i32 noundef 16908867) #11
  %31 = tail call i32 (ptr, ...) @errmsg(ptr noundef nonnull @.str.69, ptr noundef %0) #11
  tail call void @errfinish(ptr noundef nonnull @.str.14, i32 noundef 2198, ptr noundef nonnull @__func__.ri_CheckTrigger) #11
  unreachable

32:                                               ; preds = %18
  %33 = icmp eq i32 %19, 1
  br i1 %33, label %38, label %34

34:                                               ; preds = %32
  %35 = tail call zeroext i1 @errstart_cold(i32 noundef 21, ptr noundef null) #10
  tail call void @llvm.assume(i1 %35)
  %36 = tail call i32 @errcode(i32 noundef 16908867) #11
  %37 = tail call i32 (ptr, ...) @errmsg(ptr noundef nonnull @.str.70, ptr noundef %0) #11
  tail call void @errfinish(ptr noundef nonnull @.str.14, i32 noundef 2204, ptr noundef nonnull @__func__.ri_CheckTrigger) #11
  unreachable

default.unreachable1:                             ; preds = %18
  unreachable

38:                                               ; preds = %32, %26, %20
  ret void
}